target datalayout = "e-m:e-p270:32:32-p271:32:32-p272:64:64-i64:64-i128:128-f80:128-n8:16:32:64-S128"
target triple = "x86_64-pc-linux-gnu"

%struct._zend_array = type { %struct._zend_refcounted_h, %union.anon.0, i32, %union.anon.1, i32, i32, i32, i32, i64, ptr }
%struct._zend_refcounted_h = type { i32, %union.anon }
%union.anon = type { i32 }
%union.anon.0 = type { i32 }
%union.anon.1 = type { ptr }
%struct._zval_struct = type { %union._zend_value, %union.anon.3, %union.anon.6 }
%union._zend_value = type { i64 }
%union.anon.3 = type { i32 }
%union.anon.6 = type { i32 }
%struct._Bucket = type { %struct._zval_struct, i64, ptr }

; Function Attrs: nounwind uwtable
define void @zend_hash_copy(ptr noundef %0, ptr noundef %1, ptr noundef %2) #0 {
  %4 = alloca ptr, align 8
  %5 = alloca ptr, align 8
  %6 = alloca ptr, align 8
  %7 = alloca ptr, align 8
  %8 = alloca ptr, align 8
  %9 = alloca ptr, align 8
  %10 = alloca ptr, align 8
  %11 = alloca i32, align 4
  %12 = alloca ptr, align 8
  %13 = alloca ptr, align 8
  %14 = alloca ptr, align 8
  %15 = alloca ptr, align 8
  store ptr %0, ptr %8, align 8
  store ptr %1, ptr %9, align 8
  store ptr %2, ptr %10, align 8
  %16 = load ptr, ptr %9, align 8
  %17 = getelementptr inbounds %struct._zend_array, ptr %16, i32 0, i32 1
  %18 = load i32, ptr %17, align 8
  %19 = and i32 %18, 4
  %20 = icmp ne i32 %19, 0
  br i1 %20, label %21, label %63

21:                                               ; preds = %3
  store i32 0, ptr %11, align 4
  br label %22

22:                                               ; preds = %59, %21
  %23 = load i32, ptr %11, align 4
  %24 = load ptr, ptr %9, align 8
  %25 = getelementptr inbounds %struct._zend_array, ptr %24, i32 0, i32 4
  %26 = load i32, ptr %25, align 8
  %27 = icmp ult i32 %23, %26
  br i1 %27, label %28, label %62

28:                                               ; preds = %22
  %29 = load ptr, ptr %9, align 8
  %30 = getelementptr inbounds %struct._zend_array, ptr %29, i32 0, i32 3
  %31 = load ptr, ptr %30, align 8
  %32 = load i32, ptr %11, align 4
  %33 = zext i32 %32 to i64
  %34 = getelementptr inbounds %struct._zval_struct, ptr %31, i64 %33
  store ptr %34, ptr %14, align 8
  %35 = load ptr, ptr %14, align 8
  store ptr %35, ptr %4, align 8
  %36 = load ptr, ptr %4, align 8
  %37 = getelementptr inbounds %struct._zval_struct, ptr %36, i32 0, i32 1
  %38 = load i8, ptr %37, align 8
  %39 = zext i8 %38 to i32
  %40 = icmp eq i32 %39, 0
  %41 = xor i1 %40, true
  %42 = xor i1 %41, true
  %43 = zext i1 %42 to i32
  %44 = sext i32 %43 to i64
  %45 = icmp ne i64 %44, 0
  br i1 %45, label %46, label %47

46:                                               ; preds = %28
  br label %59

47:                                               ; preds = %28
  %48 = load ptr, ptr %8, align 8
  %49 = load i32, ptr %11, align 4
  %50 = zext i32 %49 to i64
  %51 = load ptr, ptr %14, align 8
  %52 = call ptr @zend_hash_index_update(ptr noundef %48, i64 noundef %50, ptr noundef %51)
  store ptr %52, ptr %12, align 8
  %53 = load ptr, ptr %10, align 8
  %54 = icmp ne ptr %53, null
  br i1 %54, label %55, label %58

55:                                               ; preds = %47
  %56 = load ptr, ptr %10, align 8
  %57 = load ptr, ptr %12, align 8
  call void %56(ptr noundef %57)
  br label %58

58:                                               ; preds = %55, %47
  br label %59

59:                                               ; preds = %58, %46
  %60 = load i32, ptr %11, align 4
  %61 = add i32 %60, 1
  store i32 %61, ptr %11, align 4
  br label %22

62:                                               ; preds = %22
  br label %145

63:                                               ; preds = %3
  store i32 0, ptr %11, align 4
  br label %64

64:                                               ; preds = %142, %63
  %65 = load i32, ptr %11, align 4
  %66 = load ptr, ptr %9, align 8
  %67 = getelementptr inbounds %struct._zend_array, ptr %66, i32 0, i32 4
  %68 = load i32, ptr %67, align 8
  %69 = icmp ult i32 %65, %68
  br i1 %69, label %70, label %145

70:                                               ; preds = %64
  %71 = load ptr, ptr %9, align 8
  %72 = getelementptr inbounds %struct._zend_array, ptr %71, i32 0, i32 3
  %73 = load ptr, ptr %72, align 8
  %74 = load i32, ptr %11, align 4
  %75 = zext i32 %74 to i64
  %76 = getelementptr inbounds %struct._Bucket, ptr %73, i64 %75
  store ptr %76, ptr %15, align 8
  %77 = load ptr, ptr %15, align 8
  %78 = getelementptr inbounds %struct._Bucket, ptr %77, i32 0, i32 0
  store ptr %78, ptr %5, align 8
  %79 = load ptr, ptr %5, align 8
  %80 = getelementptr inbounds %struct._zval_struct, ptr %79, i32 0, i32 1
  %81 = load i8, ptr %80, align 8
  %82 = zext i8 %81 to i32
  %83 = icmp eq i32 %82, 0
  %84 = xor i1 %83, true
  %85 = xor i1 %84, true
  %86 = zext i1 %85 to i32
  %87 = sext i32 %86 to i64
  %88 = icmp ne i64 %87, 0
  br i1 %88, label %89, label %90

89:                                               ; preds = %70
  br label %142

90:                                               ; preds = %70
  %91 = load ptr, ptr %15, align 8
  %92 = getelementptr inbounds %struct._Bucket, ptr %91, i32 0, i32 0
  store ptr %92, ptr %13, align 8
  %93 = load ptr, ptr %13, align 8
  store ptr %93, ptr %6, align 8
  %94 = load ptr, ptr %6, align 8
  %95 = getelementptr inbounds %struct._zval_struct, ptr %94, i32 0, i32 1
  %96 = load i8, ptr %95, align 8
  %97 = zext i8 %96 to i32
  %98 = icmp eq i32 %97, 12
  br i1 %98, label %99, label %116

99:                                               ; preds = %90
  %100 = load ptr, ptr %13, align 8
  %101 = getelementptr inbounds %struct._zval_struct, ptr %100, i32 0, i32 0
  %102 = load ptr, ptr %101, align 8
  store ptr %102, ptr %13, align 8
  %103 = load ptr, ptr %13, align 8
  store ptr %103, ptr %7, align 8
  %104 = load ptr, ptr %7, align 8
  %105 = getelementptr inbounds %struct._zval_struct, ptr %104, i32 0, i32 1
  %106 = load i8, ptr %105, align 8
  %107 = zext i8 %106 to i32
  %108 = icmp eq i32 %107, 0
  %109 = xor i1 %108, true
  %110 = xor i1 %109, true
  %111 = zext i1 %110 to i32
  %112 = sext i32 %111 to i64
  %113 = icmp ne i64 %112, 0
  br i1 %113, label %114, label %115

114:                                              ; preds = %99
  br label %142

115:                                              ; preds = %99
  br label %116

116:                                              ; preds = %115, %90
  %117 = load ptr, ptr %15, align 8
  %118 = getelementptr inbounds %struct._Bucket, ptr %117, i32 0, i32 2
  %119 = load ptr, ptr %118, align 8
  %120 = icmp ne ptr %119, null
  br i1 %120, label %121, label %128

121:                                              ; preds = %116
  %122 = load ptr, ptr %8, align 8
  %123 = load ptr, ptr %15, align 8
  %124 = getelementptr inbounds %struct._Bucket, ptr %123, i32 0, i32 2
  %125 = load ptr, ptr %124, align 8
  %126 = load ptr, ptr %13, align 8
  %127 = call ptr @zend_hash_update(ptr noundef %122, ptr noundef %125, ptr noundef %126)
  store ptr %127, ptr %12, align 8
  br label %135

128:                                              ; preds = %116
  %129 = load ptr, ptr %8, align 8
  %130 = load ptr, ptr %15, align 8
  %131 = getelementptr inbounds %struct._Bucket, ptr %130, i32 0, i32 1
  %132 = load i64, ptr %131, align 8
  %133 = load ptr, ptr %13, align 8
  %134 = call ptr @zend_hash_index_update(ptr noundef %129, i64 noundef %132, ptr noundef %133)
  store ptr %134, ptr %12, align 8
  br label %135

135:                                              ; preds = %128, %121
  %136 = load ptr, ptr %10, align 8
  %137 = icmp ne ptr %136, null
  br i1 %137, label %138, label %141

138:                                              ; preds = %135
  %139 = load ptr, ptr %10, align 8
  %140 = load ptr, ptr %12, align 8
  call void %139(ptr noundef %140)
  br label %141

141:                                              ; preds = %138, %135
  br label %142

142:                                              ; preds = %141, %114, %89
  %143 = load i32, ptr %11, align 4
  %144 = add i32 %143, 1
  store i32 %144, ptr %11, align 4
  br label %64

145:                                              ; preds = %64, %62
  ret void
}