; Function Attrs: nounwind uwtable
define void @zend_hash_copy(ptr noundef %0, ptr nocapture noundef readonly %1, ptr noundef readonly %2) local_unnamed_addr #0 {
  %4 = getelementptr inbounds i8, ptr %1, i64 8
  %5 = load i32, ptr %4, align 8
  %6 = and i32 %5, 4
  %.not = icmp eq i32 %6, 0
  %7 = getelementptr inbounds i8, ptr %1, i64 24
  %8 = load i32, ptr %7, align 8
  %.not51 = icmp eq i32 %8, 0
  br i1 %.not, label %.preheader, label %.preheader45

.preheader45:                                     ; preds = %3
  br i1 %.not51, label %.loopexit, label %.lr.ph

.lr.ph:                                           ; preds = %.preheader45
  %9 = getelementptr inbounds i8, ptr %1, i64 16
  %.not44 = icmp eq ptr %2, null
  br i1 %.not44, label %.lr.ph.split.us, label %.lr.ph.split

.lr.ph.split.us:                                  ; preds = %.lr.ph, %18
  %10 = phi i32 [ %19, %18 ], [ %8, %.lr.ph ]
  %indvars.iv56 = phi i64 [ %indvars.iv.next57, %18 ], [ 0, %.lr.ph ]
  %11 = load ptr, ptr %9, align 8
  %12 = getelementptr inbounds %struct._zval_struct, ptr %11, i64 %indvars.iv56
  %13 = getelementptr inbounds i8, ptr %12, i64 8
  %14 = load i8, ptr %13, align 8
  %15 = icmp eq i8 %14, 0
  br i1 %15, label %18, label %16

16:                                               ; preds = %.lr.ph.split.us
  %17 = tail call ptr @zend_hash_index_update(ptr noundef %0, i64 noundef %indvars.iv56, ptr noundef nonnull %12)
  %.pre65 = load i32, ptr %7, align 8
  br label %18

18:                                               ; preds = %16, %.lr.ph.split.us
  %19 = phi i32 [ %.pre65, %16 ], [ %10, %.lr.ph.split.us ]
  %indvars.iv.next57 = add nuw nsw i64 %indvars.iv56, 1
  %20 = zext i32 %19 to i64
  %21 = icmp ult i64 %indvars.iv.next57, %20
  br i1 %21, label %.lr.ph.split.us, label %.loopexit

.preheader:                                       ; preds = %3
  br i1 %.not51, label %.loopexit, label %.lr.ph49

.lr.ph49:                                         ; preds = %.preheader
  %22 = getelementptr inbounds i8, ptr %1, i64 16
  %.not43 = icmp eq ptr %2, null
  br i1 %.not43, label %.lr.ph49.split.us, label %.lr.ph49.split

.lr.ph49.split.us:                                ; preds = %.lr.ph49, %41
  %indvars.iv62 = phi i64 [ %indvars.iv.next63, %41 ], [ 0, %.lr.ph49 ]
  %23 = load ptr, ptr %22, align 8
  %24 = getelementptr inbounds %struct._Bucket, ptr %23, i64 %indvars.iv62
  %25 = getelementptr inbounds i8, ptr %24, i64 8
  %26 = load i8, ptr %25, align 8
  switch i8 %26, label %32 [
    i8 0, label %41
    i8 12, label %27
  ]

27:                                               ; preds = %.lr.ph49.split.us
  %28 = load ptr, ptr %24, align 8
  %29 = getelementptr inbounds i8, ptr %28, i64 8
  %30 = load i8, ptr %29, align 8
  %31 = icmp eq i8 %30, 0
  br i1 %31, label %41, label %32

32:                                               ; preds = %27, %.lr.ph49.split.us
  %.037.us = phi ptr [ %28, %27 ], [ %24, %.lr.ph49.split.us ]
  %33 = getelementptr inbounds i8, ptr %24, i64 24
  %34 = load ptr, ptr %33, align 8
  %.not42.us = icmp eq ptr %34, null
  br i1 %.not42.us, label %37, label %35

35:                                               ; preds = %32
  %36 = tail call ptr @zend_hash_update(ptr noundef %0, ptr noundef nonnull %34, ptr noundef nonnull %.037.us)
  br label %41

37:                                               ; preds = %32
  %38 = getelementptr inbounds i8, ptr %24, i64 16
  %39 = load i64, ptr %38, align 8
  %40 = tail call ptr @zend_hash_index_update(ptr noundef %0, i64 noundef %39, ptr noundef nonnull %.037.us)
  br label %41

41:                                               ; preds = %35, %37, %27, %.lr.ph49.split.us
  %indvars.iv.next63 = add nuw nsw i64 %indvars.iv62, 1
  %42 = load i32, ptr %7, align 8
  %43 = zext i32 %42 to i64
  %44 = icmp ult i64 %indvars.iv.next63, %43
  br i1 %44, label %.lr.ph49.split.us, label %.loopexit

.lr.ph.split:                                     ; preds = %.lr.ph, %53
  %45 = phi i32 [ %54, %53 ], [ %8, %.lr.ph ]
  %indvars.iv = phi i64 [ %indvars.iv.next, %53 ], [ 0, %.lr.ph ]
  %46 = load ptr, ptr %9, align 8
  %47 = getelementptr inbounds %struct._zval_struct, ptr %46, i64 %indvars.iv
  %48 = getelementptr inbounds i8, ptr %47, i64 8
  %49 = load i8, ptr %48, align 8
  %50 = icmp eq i8 %49, 0
  br i1 %50, label %53, label %51

51:                                               ; preds = %.lr.ph.split
  %52 = tail call ptr @zend_hash_index_update(ptr noundef %0, i64 noundef %indvars.iv, ptr noundef nonnull %47)
  tail call void %2(ptr noundef %52) #27
  %.pre = load i32, ptr %7, align 8
  br label %53

53:                                               ; preds = %51, %.lr.ph.split
  %54 = phi i32 [ %.pre, %51 ], [ %45, %.lr.ph.split ]
  %indvars.iv.next = add nuw nsw i64 %indvars.iv, 1
  %55 = zext i32 %54 to i64
  %56 = icmp ult i64 %indvars.iv.next, %55
  br i1 %56, label %.lr.ph.split, label %.loopexit

.lr.ph49.split:                                   ; preds = %.lr.ph49, %77
  %57 = phi i32 [ %78, %77 ], [ %8, %.lr.ph49 ]
  %indvars.iv59 = phi i64 [ %indvars.iv.next60, %77 ], [ 0, %.lr.ph49 ]
  %58 = load ptr, ptr %22, align 8
  %59 = getelementptr inbounds %struct._Bucket, ptr %58, i64 %indvars.iv59
  %60 = getelementptr inbounds i8, ptr %59, i64 8
  %61 = load i8, ptr %60, align 8
  switch i8 %61, label %67 [
    i8 0, label %77
    i8 12, label %62
  ]

62:                                               ; preds = %.lr.ph49.split
  %63 = load ptr, ptr %59, align 8
  %64 = getelementptr inbounds i8, ptr %63, i64 8
  %65 = load i8, ptr %64, align 8
  %66 = icmp eq i8 %65, 0
  br i1 %66, label %77, label %67

67:                                               ; preds = %.lr.ph49.split, %62
  %.037 = phi ptr [ %63, %62 ], [ %59, %.lr.ph49.split ]
  %68 = getelementptr inbounds i8, ptr %59, i64 24
  %69 = load ptr, ptr %68, align 8
  %.not42 = icmp eq ptr %69, null
  br i1 %.not42, label %72, label %70

70:                                               ; preds = %67
  %71 = tail call ptr @zend_hash_update(ptr noundef %0, ptr noundef nonnull %69, ptr noundef nonnull %.037)
  br label %76

72:                                               ; preds = %67
  %73 = getelementptr inbounds i8, ptr %59, i64 16
  %74 = load i64, ptr %73, align 8
  %75 = tail call ptr @zend_hash_index_update(ptr noundef %0, i64 noundef %74, ptr noundef nonnull %.037)
  br label %76

76:                                               ; preds = %72, %70
  %.036 = phi ptr [ %71, %70 ], [ %75, %72 ]
  tail call void %2(ptr noundef %.036) #27
  %.pre66 = load i32, ptr %7, align 8
  br label %77

77:                                               ; preds = %.lr.ph49.split, %76, %62
  %78 = phi i32 [ %57, %.lr.ph49.split ], [ %.pre66, %76 ], [ %57, %62 ]
  %indvars.iv.next60 = add nuw nsw i64 %indvars.iv59, 1
  %79 = zext i32 %78 to i64
  %80 = icmp ult i64 %indvars.iv.next60, %79
  br i1 %80, label %.lr.ph49.split, label %.loopexit

.loopexit:                                        ; preds = %53, %18, %77, %41, %.preheader45, %.preheader
  ret void
}